target datalayout = "e-m:e-p270:32:32-p271:32:32-p272:64:64-i64:64-i128:128-f80:128-n8:16:32:64-S128"
target triple = "x86_64-pc-linux-gnu"

%struct.bio_st = type { ptr, ptr, ptr, i32, i32, i32, i32, i32, i32, ptr, ptr, i64, i64 }
%struct.BIO_ASN1_BUF_CTX_t = type { i32, ptr, i32, i32, i32, i32, i32, i32, ptr, ptr, ptr, ptr, ptr, i32, i32, ptr }

; Function Attrs: nounwind uwtable
define internal i32 @asn1_bio_free(ptr noundef %0) #0 {
  %2 = alloca i32, align 4
  %3 = alloca ptr, align 8
  %4 = alloca ptr, align 8
  %5 = alloca i32, align 4
  store ptr %0, ptr %3, align 8, !tbaa !6
  call void @llvm.lifetime.start.p0(i64 8, ptr %4) #6
  %6 = load ptr, ptr %3, align 8, !tbaa !6
  %7 = getelementptr inbounds nuw %struct.bio_st, ptr %6, i32 0, i32 9
  %8 = load ptr, ptr %7, align 8, !tbaa !23
  store ptr %8, ptr %4, align 8, !tbaa !24
  %9 = load ptr, ptr %4, align 8, !tbaa !24
  %10 = icmp eq ptr %9, null
  br i1 %10, label %11, label %12

11:                                               ; preds = %1
  store i32 0, ptr %2, align 4
  store i32 1, ptr %5, align 4
  br label %29

12:                                               ; preds = %1
  %13 = load ptr, ptr %4, align 8, !tbaa !24
  %14 = getelementptr inbounds nuw %struct.BIO_ASN1_BUF_CTX_t, ptr %13, i32 0, i32 1
  %15 = load ptr, ptr %14, align 8, !tbaa !32
  %16 = icmp ne ptr %15, null
  br i1 %16, label %17, label %21

17:                                               ; preds = %12
  %18 = load ptr, ptr %4, align 8, !tbaa !24
  %19 = getelementptr inbounds nuw %struct.BIO_ASN1_BUF_CTX_t, ptr %18, i32 0, i32 1
  %20 = load ptr, ptr %19, align 8, !tbaa !32
  call void @free(ptr noundef %20) #6
  br label %21

21:                                               ; preds = %17, %12
  %22 = load ptr, ptr %4, align 8, !tbaa !24
  call void @free(ptr noundef %22) #6
  %23 = load ptr, ptr %3, align 8, !tbaa !6
  %24 = getelementptr inbounds nuw %struct.bio_st, ptr %23, i32 0, i32 3
  store i32 0, ptr %24, align 8, !tbaa !42
  %25 = load ptr, ptr %3, align 8, !tbaa !6
  %26 = getelementptr inbounds nuw %struct.bio_st, ptr %25, i32 0, i32 9
  store ptr null, ptr %26, align 8, !tbaa !23
  %27 = load ptr, ptr %3, align 8, !tbaa !6
  %28 = getelementptr inbounds nuw %struct.bio_st, ptr %27, i32 0, i32 5
  store i32 0, ptr %28, align 8, !tbaa !43
  store i32 1, ptr %2, align 4
  store i32 1, ptr %5, align 4
  br label %29

29:                                               ; preds = %21, %11
  call void @llvm.lifetime.end.p0(i64 8, ptr %4) #6
  %30 = load i32, ptr %2, align 4
  ret i32 %30
}