; Function Attrs: mustprogress nounwind willreturn uwtable
define internal range(i32 0, 2) i32 @asn1_bio_free(ptr noundef captures(none) %0) #3 {
  %2 = getelementptr inbounds nuw i8, ptr %0, i64 48
  %3 = load ptr, ptr %2, align 8, !tbaa !20
  %4 = icmp eq ptr %3, null
  br i1 %4, label %12, label %5

5:                                                ; preds = %1
  %6 = getelementptr inbounds nuw i8, ptr %3, i64 8
  %7 = load ptr, ptr %6, align 8, !tbaa !30
  %.not = icmp eq ptr %7, null
  br i1 %.not, label %9, label %8

8:                                                ; preds = %5
  tail call void @free(ptr noundef nonnull %7) #11
  br label %9

9:                                                ; preds = %8, %5
  tail call void @free(ptr noundef nonnull %3) #11
  %10 = getelementptr inbounds nuw i8, ptr %0, i64 24
  store i32 0, ptr %10, align 8, !tbaa !39
  store ptr null, ptr %2, align 8, !tbaa !20
  %11 = getelementptr inbounds nuw i8, ptr %0, i64 32
  store i32 0, ptr %11, align 8, !tbaa !40
  br label %12

12:                                               ; preds = %1, %9
  %.0 = phi i32 [ 1, %9 ], [ 0, %1 ]
  ret i32 %.0
}